; Function Attrs: nounwind sspstrong uwtable
define ptr @ossl_evp_get_digestbyname(i64 noundef %0) local_unnamed_addr #0 {
  %2 = alloca i64, align 8
  store i64 %0, ptr %2, align 8, !tbaa !6
  %3 = icmp eq i64 %0, 0
  %4 = and i64 %0, 7
  %5 = icmp ne i64 %4, 0
  %6 = or i1 %3, %5
  br i1 %6, label %rbimpl_RB_TYPE_P_fastpath.exit.thread, label %rbimpl_RB_TYPE_P_fastpath.exit

rbimpl_RB_TYPE_P_fastpath.exit:                   ; preds = %1
  %7 = inttoptr i64 %0 to ptr
  %8 = load i64, ptr %7, align 8, !tbaa !10
  %9 = and i64 %8, 31
  %10 = icmp eq i64 %9, 5
  br i1 %10, label %11, label %rbimpl_RB_TYPE_P_fastpath.exit.thread

11:                                               ; preds = %rbimpl_RB_TYPE_P_fastpath.exit
  %12 = call ptr @rb_string_value_cstr(ptr noundef nonnull %2) #4
  %13 = call ptr @EVP_get_digestbyname(ptr noundef %12) #4
  %.not11 = icmp eq ptr %13, null
  br i1 %.not11, label %14, label %.thread

14:                                               ; preds = %11
  %15 = call ptr @OBJ_txt2obj(ptr noundef %12, i32 noundef 0) #4
  %16 = call i32 @OBJ_obj2nid(ptr noundef %15) #4
  %17 = call ptr @OBJ_nid2sn(i32 noundef %16) #4
  %18 = call ptr @EVP_get_digestbyname(ptr noundef %17) #4
  call void @ASN1_OBJECT_free(ptr noundef %15) #4
  %.not12 = icmp eq ptr %18, null
  br i1 %.not12, label %19, label %.thread

19:                                               ; preds = %14
  %20 = load i64, ptr @rb_eRuntimeError, align 8, !tbaa !6
  %21 = load i64, ptr %2, align 8, !tbaa !6
  call void (i64, ptr, ...) @ossl_raise(i64 noundef %20, ptr noundef nonnull @.str, i64 noundef %21) #5
  unreachable

rbimpl_RB_TYPE_P_fastpath.exit.thread:            ; preds = %1, %rbimpl_RB_TYPE_P_fastpath.exit
  %22 = tail call ptr @rb_check_typeddata(i64 noundef %0, ptr noundef nonnull @ossl_digest_type) #4
  %.not = icmp eq ptr %22, null
  br i1 %.not, label %23, label %25

23:                                               ; preds = %rbimpl_RB_TYPE_P_fastpath.exit.thread
  %24 = load i64, ptr @rb_eRuntimeError, align 8, !tbaa !6
  tail call void (i64, ptr, ...) @ossl_raise(i64 noundef %24, ptr noundef nonnull @.str.1) #5
  unreachable

25:                                               ; preds = %rbimpl_RB_TYPE_P_fastpath.exit.thread
  %26 = tail call ptr @EVP_MD_CTX_get0_md(ptr noundef nonnull %22) #4
  br label %.thread

.thread:                                          ; preds = %11, %14, %25
  %.1 = phi ptr [ %26, %25 ], [ %18, %14 ], [ %13, %11 ]
  ret ptr %.1
}